target datalayout = "e-m:e-p270:32:32-p271:32:32-p272:64:64-i64:64-i128:128-f80:128-n8:16:32:64-S128"
target triple = "x86_64-pc-linux-gnu"

; Function Attrs: nounwind uwtable
define dso_local ptr @ap_php_conv_10(i64 noundef %0, i1 noundef zeroext %1, ptr noundef %2, ptr noundef %3, ptr noundef %4) #0 {
  %6 = alloca i64, align 8
  %7 = alloca i8, align 1
  %8 = alloca ptr, align 8
  %9 = alloca ptr, align 8
  %10 = alloca ptr, align 8
  %11 = alloca ptr, align 8
  %12 = alloca i64, align 8
  %13 = alloca i64, align 8
  %14 = alloca i64, align 8
  store i64 %0, ptr %6, align 8, !tbaa !4
  %15 = zext i1 %1 to i8
  store i8 %15, ptr %7, align 1, !tbaa !8
  store ptr %2, ptr %8, align 8, !tbaa !10
  store ptr %3, ptr %9, align 8, !tbaa !13
  store ptr %4, ptr %10, align 8, !tbaa !15
  call void @llvm.lifetime.start.p0(i64 8, ptr %11) #15
  %16 = load ptr, ptr %9, align 8, !tbaa !13
  store ptr %16, ptr %11, align 8, !tbaa !13
  call void @llvm.lifetime.start.p0(i64 8, ptr %12) #15
  %17 = load i8, ptr %7, align 1, !tbaa !8, !range !17, !noundef !18
  %18 = trunc i8 %17 to i1
  br i1 %18, label %19, label %22

19:                                               ; preds = %5
  %20 = load i64, ptr %6, align 8, !tbaa !4
  store i64 %20, ptr %12, align 8, !tbaa !4
  %21 = load ptr, ptr %8, align 8, !tbaa !10
  store i8 0, ptr %21, align 1, !tbaa !8
  br label %39

22:                                               ; preds = %5
  %23 = load i64, ptr %6, align 8, !tbaa !4
  %24 = icmp slt i64 %23, 0
  %25 = load ptr, ptr %8, align 8, !tbaa !10
  %26 = zext i1 %24 to i8
  store i8 %26, ptr %25, align 1, !tbaa !8
  %27 = load ptr, ptr %8, align 8, !tbaa !10
  %28 = load i8, ptr %27, align 1, !tbaa !8, !range !17, !noundef !18
  %29 = trunc i8 %28 to i1
  br i1 %29, label %30, label %36

30:                                               ; preds = %22
  call void @llvm.lifetime.start.p0(i64 8, ptr %13) #15
  %31 = load i64, ptr %6, align 8, !tbaa !4
  %32 = add nsw i64 %31, 1
  store i64 %32, ptr %13, align 8, !tbaa !4
  %33 = load i64, ptr %13, align 8, !tbaa !4
  %34 = sub nsw i64 0, %33
  %35 = add i64 %34, 1
  store i64 %35, ptr %12, align 8, !tbaa !4
  call void @llvm.lifetime.end.p0(i64 8, ptr %13) #15
  br label %38

36:                                               ; preds = %22
  %37 = load i64, ptr %6, align 8, !tbaa !4
  store i64 %37, ptr %12, align 8, !tbaa !4
  br label %38

38:                                               ; preds = %36, %30
  br label %39

39:                                               ; preds = %38, %19
  br label %40

40:                                               ; preds = %52, %39
  call void @llvm.lifetime.start.p0(i64 8, ptr %14) #15
  %41 = load i64, ptr %12, align 8, !tbaa !4
  %42 = udiv i64 %41, 10
  store i64 %42, ptr %14, align 8, !tbaa !4
  %43 = load i64, ptr %12, align 8, !tbaa !4
  %44 = load i64, ptr %14, align 8, !tbaa !4
  %45 = mul i64 %44, 10
  %46 = sub i64 %43, %45
  %47 = add i64 %46, 48
  %48 = trunc i64 %47 to i8
  %49 = load ptr, ptr %11, align 8, !tbaa !13
  %50 = getelementptr inbounds i8, ptr %49, i32 -1
  store ptr %50, ptr %11, align 8, !tbaa !13
  store i8 %48, ptr %50, align 1, !tbaa !19
  %51 = load i64, ptr %14, align 8, !tbaa !4
  store i64 %51, ptr %12, align 8, !tbaa !4
  call void @llvm.lifetime.end.p0(i64 8, ptr %14) #15
  br label %52

52:                                               ; preds = %40
  %53 = load i64, ptr %12, align 8, !tbaa !4
  %54 = icmp ne i64 %53, 0
  br i1 %54, label %40, label %55

55:                                               ; preds = %52
  %56 = load ptr, ptr %9, align 8, !tbaa !13
  %57 = load ptr, ptr %11, align 8, !tbaa !13
  %58 = ptrtoint ptr %56 to i64
  %59 = ptrtoint ptr %57 to i64
  %60 = sub i64 %58, %59
  %61 = load ptr, ptr %10, align 8, !tbaa !15
  store i64 %60, ptr %61, align 8, !tbaa !4
  %62 = load ptr, ptr %11, align 8, !tbaa !13
  call void @llvm.lifetime.end.p0(i64 8, ptr %12) #15
  call void @llvm.lifetime.end.p0(i64 8, ptr %11) #15
  ret ptr %62
}