; Function Attrs: nofree norecurse nosync nounwind memory(argmem: write) uwtable
define dso_local noundef nonnull ptr @ap_php_conv_10(i64 noundef %0, i1 noundef zeroext %1, ptr noundef writeonly captures(none) initializes((0, 1)) %2, ptr noundef %3, ptr noundef writeonly captures(none) %4) local_unnamed_addr #0 {
  %.lobit = lshr i64 %0, 63
  %6 = trunc nuw nsw i64 %.lobit to i8
  %spec.select = tail call i64 @llvm.abs.i64(i64 %0, i1 false)
  %.sink = select i1 %1, i8 0, i8 %6
  %.019 = select i1 %1, i64 %0, i64 %spec.select
  store i8 %.sink, ptr %2, align 1, !tbaa !4
  br label %7

7:                                                ; preds = %7, %5
  %.1 = phi i64 [ %.019, %5 ], [ %8, %7 ]
  %.0 = phi ptr [ %3, %5 ], [ %12, %7 ]
  %8 = udiv i64 %.1, 10
  %.neg = mul i64 %8, 246
  %9 = add i64 %.neg, %.1
  %10 = trunc i64 %9 to i8
  %11 = add i8 %10, 48
  %12 = getelementptr inbounds i8, ptr %.0, i64 -1
  store i8 %11, ptr %12, align 1, !tbaa !8
  %.not = icmp ult i64 %.1, 10
  br i1 %.not, label %13, label %7

13:                                               ; preds = %7
  %14 = ptrtoint ptr %3 to i64
  %15 = ptrtoint ptr %12 to i64
  %16 = sub i64 %14, %15
  store i64 %16, ptr %4, align 8, !tbaa !9
  ret ptr %12
}